target datalayout = "e-m:e-p270:32:32-p271:32:32-p272:64:64-i64:64-i128:128-f80:128-n8:16:32:64-S128"
target triple = "x86_64-pc-linux-gnu"

@hf_nfs4_time_seconds = internal global i32 0, align 4
@hf_nfs4_time_nseconds = internal global i32 0, align 4
@hf_nfs4_ff_ops_requested = internal global i32 0, align 4
@hf_nfs4_ff_bytes_requested = internal global i32 0, align 4
@hf_nfs4_ff_ops_completed = internal global i32 0, align 4
@hf_nfs4_ff_bytes_completed = internal global i32 0, align 4
@hf_nfs4_ff_bytes_not_delivered = internal global i32 0, align 4
@ett_nfs4_io_latency = internal global i32 0, align 4
@ett_nfs4_io_time = internal global i32 0, align 4
@.str.1403 = private unnamed_addr constant [3 x i8] c"%s\00", align 1
@.str.2491 = private unnamed_addr constant [11 x i8] c"%s Latency\00", align 1
@.str.2492 = private unnamed_addr constant [10 x i8] c"Busy time\00", align 1
@.str.2493 = private unnamed_addr constant [16 x i8] c"Completion time\00", align 1

; Function Attrs: null_pointer_is_valid sspstrong uwtable
define internal i32 @dissect_nfs4_nfstime(ptr noundef %0, i32 noundef %1, ptr noundef %2) #0 {
  %4 = alloca ptr, align 8
  %5 = alloca i32, align 4
  %6 = alloca ptr, align 8
  store ptr %0, ptr %4, align 8
  store i32 %1, ptr %5, align 4
  store ptr %2, ptr %6, align 8
  %7 = load ptr, ptr %4, align 8
  %8 = load ptr, ptr %6, align 8
  %9 = load i32, ptr @hf_nfs4_time_seconds, align 4
  %10 = load i32, ptr %5, align 4
  %11 = call i32 @dissect_rpc_uint64(ptr noundef %7, ptr noundef %8, i32 noundef %9, i32 noundef %10)
  store i32 %11, ptr %5, align 4
  %12 = load ptr, ptr %4, align 8
  %13 = load ptr, ptr %6, align 8
  %14 = load i32, ptr @hf_nfs4_time_nseconds, align 4
  %15 = load i32, ptr %5, align 4
  %16 = call i32 @dissect_rpc_uint32(ptr noundef %12, ptr noundef %13, i32 noundef %14, i32 noundef %15)
  store i32 %16, ptr %5, align 4
  %17 = load i32, ptr %5, align 4
  ret i32 %17
}

; Function Attrs: null_pointer_is_valid sspstrong uwtable
define internal i32 @dissect_nfs4_io_time(ptr noundef %0, i32 noundef %1, ptr noundef %2, ptr noundef %3) #0 {
  %5 = alloca ptr, align 8
  %6 = alloca i32, align 4
  %7 = alloca ptr, align 8
  %8 = alloca ptr, align 8
  %9 = alloca ptr, align 8
  store ptr %0, ptr %5, align 8
  store i32 %1, ptr %6, align 4
  store ptr %2, ptr %7, align 8
  store ptr %3, ptr %8, align 8
  call void @llvm.lifetime.start.p0(i64 8, ptr %9) #16
  %10 = load ptr, ptr %7, align 8
  %11 = load ptr, ptr %5, align 8
  %12 = load i32, ptr %6, align 4
  %13 = load i32, ptr @ett_nfs4_io_time, align 4
  %14 = load ptr, ptr %8, align 8
  %15 = call ptr (ptr, ptr, i32, i32, i32, ptr, ptr, ...) @proto_tree_add_subtree_format(ptr noundef %10, ptr noundef %11, i32 noundef %12, i32 noundef 0, i32 noundef %13, ptr noundef null, ptr noundef @.str.1403, ptr noundef %14)
  store ptr %15, ptr %9, align 8
  %16 = load ptr, ptr %5, align 8
  %17 = load i32, ptr %6, align 4
  %18 = load ptr, ptr %9, align 8
  %19 = call i32 @dissect_nfs4_nfstime(ptr noundef %16, i32 noundef %17, ptr noundef %18)
  store i32 %19, ptr %6, align 4
  %20 = load i32, ptr %6, align 4
  call void @llvm.lifetime.end.p0(i64 8, ptr %9) #16
  ret i32 %20
}

; Function Attrs: null_pointer_is_valid sspstrong uwtable
define internal i32 @dissect_nfs4_io_latency(ptr noundef %0, i32 noundef %1, ptr noundef %2, ptr noundef %3) #0 {
  %5 = alloca ptr, align 8
  %6 = alloca i32, align 4
  %7 = alloca ptr, align 8
  %8 = alloca ptr, align 8
  %9 = alloca ptr, align 8
  store ptr %0, ptr %5, align 8
  store i32 %1, ptr %6, align 4
  store ptr %2, ptr %7, align 8
  store ptr %3, ptr %8, align 8
  call void @llvm.lifetime.start.p0(i64 8, ptr %9) #16
  %10 = load ptr, ptr %7, align 8
  %11 = load ptr, ptr %5, align 8
  %12 = load i32, ptr %6, align 4
  %13 = load i32, ptr @ett_nfs4_io_latency, align 4
  %14 = load ptr, ptr %8, align 8
  %15 = call ptr (ptr, ptr, i32, i32, i32, ptr, ptr, ...) @proto_tree_add_subtree_format(ptr noundef %10, ptr noundef %11, i32 noundef %12, i32 noundef 0, i32 noundef %13, ptr noundef null, ptr noundef @.str.2491, ptr noundef %14)
  store ptr %15, ptr %9, align 8
  %16 = load ptr, ptr %5, align 8
  %17 = load ptr, ptr %9, align 8
  %18 = load i32, ptr @hf_nfs4_ff_ops_requested, align 4
  %19 = load i32, ptr %6, align 4
  %20 = call i32 @dissect_rpc_uint64(ptr noundef %16, ptr noundef %17, i32 noundef %18, i32 noundef %19)
  store i32 %20, ptr %6, align 4
  %21 = load ptr, ptr %5, align 8
  %22 = load ptr, ptr %9, align 8
  %23 = load i32, ptr @hf_nfs4_ff_bytes_requested, align 4
  %24 = load i32, ptr %6, align 4
  %25 = call i32 @dissect_rpc_uint64(ptr noundef %21, ptr noundef %22, i32 noundef %23, i32 noundef %24)
  store i32 %25, ptr %6, align 4
  %26 = load ptr, ptr %5, align 8
  %27 = load ptr, ptr %9, align 8
  %28 = load i32, ptr @hf_nfs4_ff_ops_completed, align 4
  %29 = load i32, ptr %6, align 4
  %30 = call i32 @dissect_rpc_uint64(ptr noundef %26, ptr noundef %27, i32 noundef %28, i32 noundef %29)
  store i32 %30, ptr %6, align 4
  %31 = load ptr, ptr %5, align 8
  %32 = load ptr, ptr %9, align 8
  %33 = load i32, ptr @hf_nfs4_ff_bytes_completed, align 4
  %34 = load i32, ptr %6, align 4
  %35 = call i32 @dissect_rpc_uint64(ptr noundef %31, ptr noundef %32, i32 noundef %33, i32 noundef %34)
  store i32 %35, ptr %6, align 4
  %36 = load ptr, ptr %5, align 8
  %37 = load ptr, ptr %9, align 8
  %38 = load i32, ptr @hf_nfs4_ff_bytes_not_delivered, align 4
  %39 = load i32, ptr %6, align 4
  %40 = call i32 @dissect_rpc_uint64(ptr noundef %36, ptr noundef %37, i32 noundef %38, i32 noundef %39)
  store i32 %40, ptr %6, align 4
  %41 = load ptr, ptr %5, align 8
  %42 = load i32, ptr %6, align 4
  %43 = load ptr, ptr %9, align 8
  %44 = call i32 @dissect_nfs4_io_time(ptr noundef %41, i32 noundef %42, ptr noundef %43, ptr noundef @.str.2492)
  store i32 %44, ptr %6, align 4
  %45 = load ptr, ptr %5, align 8
  %46 = load i32, ptr %6, align 4
  %47 = load ptr, ptr %9, align 8
  %48 = call i32 @dissect_nfs4_io_time(ptr noundef %45, i32 noundef %46, ptr noundef %47, ptr noundef @.str.2493)
  store i32 %48, ptr %6, align 4
  %49 = load i32, ptr %6, align 4
  call void @llvm.lifetime.end.p0(i64 8, ptr %9) #16
  ret i32 %49
}