; Function Attrs: null_pointer_is_valid sspstrong uwtable
define internal fastcc i32 @dissect_nfs4_io_latency(ptr noundef %0, i32 noundef %1, ptr noundef %2, ptr noundef %3) unnamed_addr #0 {
  %5 = load i32, ptr @ett_nfs4_io_latency, align 4
  %6 = tail call ptr (ptr, ptr, i32, i32, i32, ptr, ptr, ...) @proto_tree_add_subtree_format(ptr noundef %2, ptr noundef %0, i32 noundef %1, i32 noundef 0, i32 noundef %5, ptr noundef null, ptr noundef nonnull @.str.2491, ptr noundef %3)
  %7 = load i32, ptr @hf_nfs4_ff_ops_requested, align 4
  %8 = tail call i32 @dissect_rpc_uint64(ptr noundef %0, ptr noundef %6, i32 noundef %7, i32 noundef %1)
  %9 = load i32, ptr @hf_nfs4_ff_bytes_requested, align 4
  %10 = tail call i32 @dissect_rpc_uint64(ptr noundef %0, ptr noundef %6, i32 noundef %9, i32 noundef %8)
  %11 = load i32, ptr @hf_nfs4_ff_ops_completed, align 4
  %12 = tail call i32 @dissect_rpc_uint64(ptr noundef %0, ptr noundef %6, i32 noundef %11, i32 noundef %10)
  %13 = load i32, ptr @hf_nfs4_ff_bytes_completed, align 4
  %14 = tail call i32 @dissect_rpc_uint64(ptr noundef %0, ptr noundef %6, i32 noundef %13, i32 noundef %12)
  %15 = load i32, ptr @hf_nfs4_ff_bytes_not_delivered, align 4
  %16 = tail call i32 @dissect_rpc_uint64(ptr noundef %0, ptr noundef %6, i32 noundef %15, i32 noundef %14)
  %17 = load i32, ptr @ett_nfs4_io_time, align 4
  %18 = tail call ptr (ptr, ptr, i32, i32, i32, ptr, ptr, ...) @proto_tree_add_subtree_format(ptr noundef %6, ptr noundef %0, i32 noundef %16, i32 noundef 0, i32 noundef %17, ptr noundef null, ptr noundef nonnull @.str.1403, ptr noundef nonnull @.str.2492)
  %19 = load i32, ptr @hf_nfs4_time_seconds, align 4
  %20 = tail call i32 @dissect_rpc_uint64(ptr noundef %0, ptr noundef %18, i32 noundef %19, i32 noundef %16)
  %21 = load i32, ptr @hf_nfs4_time_nseconds, align 4
  %22 = tail call i32 @dissect_rpc_uint32(ptr noundef %0, ptr noundef %18, i32 noundef %21, i32 noundef %20)
  %23 = load i32, ptr @ett_nfs4_io_time, align 4
  %24 = tail call ptr (ptr, ptr, i32, i32, i32, ptr, ptr, ...) @proto_tree_add_subtree_format(ptr noundef %6, ptr noundef %0, i32 noundef %22, i32 noundef 0, i32 noundef %23, ptr noundef null, ptr noundef nonnull @.str.1403, ptr noundef nonnull @.str.2493)
  %25 = load i32, ptr @hf_nfs4_time_seconds, align 4
  %26 = tail call i32 @dissect_rpc_uint64(ptr noundef %0, ptr noundef %24, i32 noundef %25, i32 noundef %22)
  %27 = load i32, ptr @hf_nfs4_time_nseconds, align 4
  %28 = tail call i32 @dissect_rpc_uint32(ptr noundef %0, ptr noundef %24, i32 noundef %27, i32 noundef %26)
  ret i32 %28
}